; Function Attrs: mustprogress nofree norecurse nosync nounwind willreturn memory(none) uwtable
define noundef i64 @_ZNK2cv9SparseMat4hashEiii(ptr noundef nonnull readnone align 8 captures(none) dereferenceable(16) %0, i32 noundef %1, i32 noundef %2, i32 noundef %3) local_unnamed_addr #8 align 2 {
  %5 = zext i32 %1 to i64
  %6 = mul nuw nsw i64 %5, 1540483477
  %7 = zext i32 %2 to i64
  %8 = add nuw nsw i64 %6, %7
  %9 = mul i64 %8, 1540483477
  %10 = zext i32 %3 to i64
  %11 = add i64 %9, %10
  ret i64 %11
}